; Function Attrs: nounwind uwtable
define internal range(i32 -1094995529, 1) i32 @latm_write_header(ptr noundef %0) #0 {
  %2 = getelementptr inbounds nuw i8, ptr %0, i64 48
  %3 = load ptr, ptr %2, align 8, !tbaa !4
  %4 = load ptr, ptr %3, align 8, !tbaa !24
  %5 = getelementptr inbounds nuw i8, ptr %4, i64 16
  %6 = load ptr, ptr %5, align 8, !tbaa !26
  %7 = getelementptr inbounds nuw i8, ptr %6, i64 4
  %8 = load i32, ptr %7, align 4, !tbaa !33
  switch i32 %8, label %9 [
    i32 86065, label %20
    i32 86018, label %10
    i32 86061, label %10
  ]

9:                                                ; preds = %1
  tail call void (ptr, i32, ptr, ...) @av_log(ptr noundef nonnull %0, i32 noundef 16, ptr noundef nonnull @.str.9) #6
  br label %20

10:                                               ; preds = %1, %1
  %11 = getelementptr inbounds nuw i8, ptr %6, i64 24
  %12 = load i32, ptr %11, align 8, !tbaa !36
  %13 = icmp sgt i32 %12, 0
  br i1 %13, label %14, label %19

14:                                               ; preds = %10
  %15 = getelementptr inbounds nuw i8, ptr %6, i64 16
  %16 = load ptr, ptr %15, align 8, !tbaa !37
  %17 = tail call fastcc i32 @latm_decode_extradata(ptr noundef nonnull %0, ptr noundef %16, i32 noundef %12)
  %18 = icmp slt i32 %17, 0
  br i1 %18, label %20, label %19

19:                                               ; preds = %14, %10
  br label %20

20:                                               ; preds = %14, %1, %19, %9
  %.0 = phi i32 [ -22, %9 ], [ 0, %19 ], [ 0, %1 ], [ -1094995529, %14 ]
  ret i32 %.0
}